	.text
	.def	 @feat.00;
	.scl	3;
	.type	0;
	.endef
	.globl	@feat.00
.set @feat.00, 0
	.file	"main.7rcbfp3g-cgu.0"
	.def	 _ZN3std10sys_common9backtrace28__rust_begin_short_backtrace17hdda2197277467e5eE;
	.scl	3;
	.type	32;
	.endef
	.section	.text,"xr",one_only,_ZN3std10sys_common9backtrace28__rust_begin_short_backtrace17hdda2197277467e5eE
	.p2align	4, 0x90
_ZN3std10sys_common9backtrace28__rust_begin_short_backtrace17hdda2197277467e5eE:
.seh_proc _ZN3std10sys_common9backtrace28__rust_begin_short_backtrace17hdda2197277467e5eE
	subq	$40, %rsp
	.seh_stackalloc 40
	.seh_endprologue
	callq	*%rcx
	leaq	32(%rsp), %rax
	#APP
	#NO_APP
	addq	$40, %rsp
	retq
	.seh_handlerdata
	.section	.text,"xr",one_only,_ZN3std10sys_common9backtrace28__rust_begin_short_backtrace17hdda2197277467e5eE
	.seh_endproc

	.def	 _ZN3std2rt10lang_start17hbb9725e0588a5e29E;
	.scl	2;
	.type	32;
	.endef
	.section	.text,"xr",one_only,_ZN3std2rt10lang_start17hbb9725e0588a5e29E
	.globl	_ZN3std2rt10lang_start17hbb9725e0588a5e29E
	.p2align	4, 0x90
_ZN3std2rt10lang_start17hbb9725e0588a5e29E:
.seh_proc _ZN3std2rt10lang_start17hbb9725e0588a5e29E
	subq	$40, %rsp
	.seh_stackalloc 40
	.seh_endprologue
	movq	%r8, %r9
	movq	%rdx, %r8
	movq	%rcx, 32(%rsp)
	leaq	__unnamed_1(%rip), %rdx
	leaq	32(%rsp), %rcx
	callq	_ZN3std2rt19lang_start_internal17hf583c5547b2104e4E
	nop
	addq	$40, %rsp
	retq
	.seh_handlerdata
	.section	.text,"xr",one_only,_ZN3std2rt10lang_start17hbb9725e0588a5e29E
	.seh_endproc

	.def	 _ZN3std2rt10lang_start28_$u7b$$u7b$closure$u7d$$u7d$17hd75c64dc0c30a0c3E;
	.scl	3;
	.type	32;
	.endef
	.section	.text,"xr",one_only,_ZN3std2rt10lang_start28_$u7b$$u7b$closure$u7d$$u7d$17hd75c64dc0c30a0c3E
	.p2align	4, 0x90
_ZN3std2rt10lang_start28_$u7b$$u7b$closure$u7d$$u7d$17hd75c64dc0c30a0c3E:
.seh_proc _ZN3std2rt10lang_start28_$u7b$$u7b$closure$u7d$$u7d$17hd75c64dc0c30a0c3E
	subq	$40, %rsp
	.seh_stackalloc 40
	.seh_endprologue
	movq	(%rcx), %rcx
	callq	_ZN3std10sys_common9backtrace28__rust_begin_short_backtrace17hdda2197277467e5eE
	xorl	%eax, %eax
	addq	$40, %rsp
	retq
	.seh_handlerdata
	.section	.text,"xr",one_only,_ZN3std2rt10lang_start28_$u7b$$u7b$closure$u7d$$u7d$17hd75c64dc0c30a0c3E
	.seh_endproc

	.def	 _ZN4core3ops8function6FnOnce40call_once$u7b$$u7b$vtable.shim$u7d$$u7d$17h8dded8f2bddc1ae3E;
	.scl	3;
	.type	32;
	.endef
	.section	.text,"xr",one_only,_ZN4core3ops8function6FnOnce40call_once$u7b$$u7b$vtable.shim$u7d$$u7d$17h8dded8f2bddc1ae3E
	.p2align	4, 0x90
_ZN4core3ops8function6FnOnce40call_once$u7b$$u7b$vtable.shim$u7d$$u7d$17h8dded8f2bddc1ae3E:
.seh_proc _ZN4core3ops8function6FnOnce40call_once$u7b$$u7b$vtable.shim$u7d$$u7d$17h8dded8f2bddc1ae3E
	subq	$40, %rsp
	.seh_stackalloc 40
	.seh_endprologue
	movq	(%rcx), %rcx
	callq	_ZN3std10sys_common9backtrace28__rust_begin_short_backtrace17hdda2197277467e5eE
	xorl	%eax, %eax
	addq	$40, %rsp
	retq
	.seh_handlerdata
	.section	.text,"xr",one_only,_ZN4core3ops8function6FnOnce40call_once$u7b$$u7b$vtable.shim$u7d$$u7d$17h8dded8f2bddc1ae3E
	.seh_endproc

	.def	 _ZN4core3ptr85drop_in_place$LT$std..rt..lang_start$LT$$LP$$RP$$GT$..$u7b$$u7b$closure$u7d$$u7d$$GT$17hadddf18eb800e445E;
	.scl	3;
	.type	32;
	.endef
	.section	.text,"xr",one_only,_ZN4core3ptr85drop_in_place$LT$std..rt..lang_start$LT$$LP$$RP$$GT$..$u7b$$u7b$closure$u7d$$u7d$$GT$17hadddf18eb800e445E
	.p2align	4, 0x90
_ZN4core3ptr85drop_in_place$LT$std..rt..lang_start$LT$$LP$$RP$$GT$..$u7b$$u7b$closure$u7d$$u7d$$GT$17hadddf18eb800e445E:
	retq

	.def	 _ZN4main4main17h2d6c3d678af9e020E;
	.scl	3;
	.type	32;
	.endef
	.section	.text,"xr",one_only,_ZN4main4main17h2d6c3d678af9e020E
	.p2align	4, 0x90
_ZN4main4main17h2d6c3d678af9e020E:
	retq

	.def	 main;
	.scl	2;
	.type	32;
	.endef
	.section	.text,"xr",one_only,main
	.globl	main
	.p2align	4, 0x90
main:
.seh_proc main
	subq	$40, %rsp
	.seh_stackalloc 40
	.seh_endprologue
	movq	%rdx, %r9
	movslq	%ecx, %r8
	leaq	_ZN4main4main17h2d6c3d678af9e020E(%rip), %rax
	movq	%rax, 32(%rsp)
	leaq	__unnamed_1(%rip), %rdx
	leaq	32(%rsp), %rcx
	callq	_ZN3std2rt19lang_start_internal17hf583c5547b2104e4E
	nop
	addq	$40, %rsp
	retq
	.seh_handlerdata
	.section	.text,"xr",one_only,main
	.seh_endproc

	.section	.rdata,"dr",one_only,__unnamed_1
	.p2align	3
__unnamed_1:
	.quad	_ZN4core3ptr85drop_in_place$LT$std..rt..lang_start$LT$$LP$$RP$$GT$..$u7b$$u7b$closure$u7d$$u7d$$GT$17hadddf18eb800e445E
	.quad	8
	.quad	8
	.quad	_ZN3std2rt10lang_start28_$u7b$$u7b$closure$u7d$$u7d$17hd75c64dc0c30a0c3E
	.quad	_ZN3std2rt10lang_start28_$u7b$$u7b$closure$u7d$$u7d$17hd75c64dc0c30a0c3E
	.quad	_ZN4core3ops8function6FnOnce40call_once$u7b$$u7b$vtable.shim$u7d$$u7d$17h8dded8f2bddc1ae3E

